(dp0
S'top-conf'
p1
Vami-8deab48c
p2
sS'app-build'
p3
Vami-9f9bc49e
p4
sS'log-spec'
p5
Vami-013e6100
p6
sS'top-build'
p7
Vami-c18dd0c0
p8
sS'app-conf'
p9
Vami-8d49178c
p10
sS'top-deploy'
p11
Vami-594f1658
p12
sVec2-54-178-43-169.ap-northeast-1.compute.amazonaws.com.
p13
Vami-f71646f6
p14
s.